target datalayout = "e-m:e-p270:32:32-p271:32:32-p272:64:64-i64:64-i128:128-f80:128-n8:16:32:64-S128"
target triple = "x86_64-pc-linux-gnu"

@.str = private unnamed_addr constant [3 x i8] c"rb\00", align 1
@.str.1 = private unnamed_addr constant [36 x i8] c"Cannot open file \22%s\22 for reading.\0A\00", align 1

; Function Attrs: nounwind uwtable
define ptr @Abc_FileRead(ptr noundef %0) #0 {
  %2 = alloca ptr, align 8
  %3 = alloca ptr, align 8
  %4 = alloca ptr, align 8
  %5 = alloca ptr, align 8
  %6 = alloca i32, align 4
  %7 = alloca i32, align 4
  %8 = alloca i32, align 4
  store ptr %0, ptr %3, align 8, !tbaa !8
  call void @llvm.lifetime.start.p0(i64 8, ptr %4) #12
  call void @llvm.lifetime.start.p0(i64 8, ptr %5) #12
  call void @llvm.lifetime.start.p0(i64 4, ptr %6) #12
  call void @llvm.lifetime.start.p0(i64 4, ptr %7) #12
  %9 = load ptr, ptr %3, align 8, !tbaa !8
  %10 = call noalias ptr @fopen(ptr noundef %9, ptr noundef @.str)
  store ptr %10, ptr %4, align 8, !tbaa !17
  %11 = load ptr, ptr %4, align 8, !tbaa !17
  %12 = icmp eq ptr %11, null
  br i1 %12, label %13, label %16

13:                                               ; preds = %1
  %14 = load ptr, ptr %3, align 8, !tbaa !8
  %15 = call i32 (ptr, ...) @printf(ptr noundef @.str.1, ptr noundef %14)
  store ptr null, ptr %2, align 8
  store i32 1, ptr %8, align 4
  br label %51

16:                                               ; preds = %1
  %17 = load ptr, ptr %4, align 8, !tbaa !17
  %18 = call i32 @fseek(ptr noundef %17, i64 noundef 0, i32 noundef 2)
  %19 = load ptr, ptr %4, align 8, !tbaa !17
  %20 = call i64 @ftell(ptr noundef %19)
  %21 = trunc i64 %20 to i32
  store i32 %21, ptr %6, align 4, !tbaa !10
  %22 = load ptr, ptr %4, align 8, !tbaa !17
  call void @rewind(ptr noundef %22)
  %23 = load i32, ptr %6, align 4, !tbaa !10
  %24 = add nsw i32 %23, 3
  %25 = sext i32 %24 to i64
  %26 = call noalias ptr @malloc(i64 noundef %25) #13
  store ptr %26, ptr %5, align 8, !tbaa !8
  %27 = load ptr, ptr %5, align 8, !tbaa !8
  %28 = load i32, ptr %6, align 4, !tbaa !10
  %29 = sext i32 %28 to i64
  %30 = load ptr, ptr %4, align 8, !tbaa !17
  %31 = call i64 @fread(ptr noundef %27, i64 noundef %29, i64 noundef 1, ptr noundef %30)
  %32 = trunc i64 %31 to i32
  store i32 %32, ptr %7, align 4, !tbaa !10
  %33 = load ptr, ptr %5, align 8, !tbaa !8
  %34 = load i32, ptr %6, align 4, !tbaa !10
  %35 = add nsw i32 %34, 0
  %36 = sext i32 %35 to i64
  %37 = getelementptr inbounds i8, ptr %33, i64 %36
  store i8 10, ptr %37, align 1, !tbaa !12
  %38 = load ptr, ptr %5, align 8, !tbaa !8
  %39 = load i32, ptr %6, align 4, !tbaa !10
  %40 = add nsw i32 %39, 1
  %41 = sext i32 %40 to i64
  %42 = getelementptr inbounds i8, ptr %38, i64 %41
  store i8 10, ptr %42, align 1, !tbaa !12
  %43 = load ptr, ptr %5, align 8, !tbaa !8
  %44 = load i32, ptr %6, align 4, !tbaa !10
  %45 = add nsw i32 %44, 2
  %46 = sext i32 %45 to i64
  %47 = getelementptr inbounds i8, ptr %43, i64 %46
  store i8 0, ptr %47, align 1, !tbaa !12
  %48 = load ptr, ptr %4, align 8, !tbaa !17
  %49 = call i32 @fclose(ptr noundef %48)
  %50 = load ptr, ptr %5, align 8, !tbaa !8
  store ptr %50, ptr %2, align 8
  store i32 1, ptr %8, align 4
  br label %51

51:                                               ; preds = %16, %13
  call void @llvm.lifetime.end.p0(i64 4, ptr %7) #12
  call void @llvm.lifetime.end.p0(i64 4, ptr %6) #12
  call void @llvm.lifetime.end.p0(i64 8, ptr %5) #12
  call void @llvm.lifetime.end.p0(i64 8, ptr %4) #12
  %52 = load ptr, ptr %2, align 8
  ret ptr %52
}